target datalayout = "e-m:e-p270:32:32-p271:32:32-p272:64:64-i64:64-i128:128-f80:128-n8:16:32:64-S128"
target triple = "x86_64-pc-linux-gnu"

%"class.duckdb_snappy::ByteArraySource" = type { %"class.duckdb_snappy::Source", ptr, i64 }
%"class.duckdb_snappy::Source" = type { ptr }

; Function Attrs: mustprogress nounwind uwtable
define linkonce_odr void @_ZN13duckdb_snappy6SourceC2Ev(ptr noundef nonnull align 8 dereferenceable(8) %0) unnamed_addr #0 comdat align 2 {
  %2 = alloca ptr, align 8
  store ptr %0, ptr %2, align 8, !tbaa !71
  %3 = load ptr, ptr %2, align 8
  store ptr getelementptr inbounds inrange(-16, 40) ({ [7 x ptr] }, ptr @_ZTVN13duckdb_snappy6SourceE, i32 0, i32 0, i32 2), ptr %3, align 8, !tbaa !67
  ret void
}

; Function Attrs: mustprogress uwtable
define linkonce_odr void @_ZN13duckdb_snappy15ByteArraySourceC2EPKcm(ptr noundef nonnull align 8 dereferenceable(24) %0, ptr noundef %1, i64 noundef %2) unnamed_addr #1 comdat align 2 {
  %4 = alloca ptr, align 8
  %5 = alloca ptr, align 8
  %6 = alloca i64, align 8
  store ptr %0, ptr %4, align 8, !tbaa !83
  store ptr %1, ptr %5, align 8, !tbaa !7
  store i64 %2, ptr %6, align 8, !tbaa !3
  %7 = load ptr, ptr %4, align 8
  call void @_ZN13duckdb_snappy6SourceC2Ev(ptr noundef nonnull align 8 dereferenceable(8) %7)
  store ptr getelementptr inbounds inrange(-16, 40) ({ [7 x ptr] }, ptr @_ZTVN13duckdb_snappy15ByteArraySourceE, i32 0, i32 0, i32 2), ptr %7, align 8, !tbaa !67
  %8 = getelementptr inbounds nuw %"class.duckdb_snappy::ByteArraySource", ptr %7, i32 0, i32 1
  %9 = load ptr, ptr %5, align 8, !tbaa !7
  store ptr %9, ptr %8, align 8, !tbaa !85
  %10 = getelementptr inbounds nuw %"class.duckdb_snappy::ByteArraySource", ptr %7, i32 0, i32 2
  %11 = load i64, ptr %6, align 8, !tbaa !3
  store i64 %11, ptr %10, align 8, !tbaa !88
  ret void
}

; Function Attrs: mustprogress uwtable
define noundef zeroext i1 @_ZN13duckdb_snappy20RawUncompressToIOVecEPKcmPK5iovecm(ptr noundef %0, i64 noundef %1, ptr noundef %2, i64 noundef %3) #1 personality ptr @__gxx_personality_v0 {
  %5 = alloca ptr, align 8
  %6 = alloca i64, align 8
  %7 = alloca ptr, align 8
  %8 = alloca i64, align 8
  %9 = alloca %"class.duckdb_snappy::ByteArraySource", align 8
  %10 = alloca ptr, align 8
  %11 = alloca i32, align 4
  store ptr %0, ptr %5, align 8, !tbaa !7
  store i64 %1, ptr %6, align 8, !tbaa !3
  store ptr %2, ptr %7, align 8, !tbaa !81
  store i64 %3, ptr %8, align 8, !tbaa !3
  call void @llvm.lifetime.start.p0(i64 24, ptr %9) #17
  %12 = load ptr, ptr %5, align 8, !tbaa !7
  %13 = load i64, ptr %6, align 8, !tbaa !3
  call void @_ZN13duckdb_snappy15ByteArraySourceC2EPKcm(ptr noundef nonnull align 8 dereferenceable(24) %9, ptr noundef %12, i64 noundef %13)
  %14 = load ptr, ptr %7, align 8, !tbaa !81
  %15 = load i64, ptr %8, align 8, !tbaa !3
  %16 = invoke noundef zeroext i1 @_ZN13duckdb_snappy20RawUncompressToIOVecEPNS_6SourceEPK5iovecm(ptr noundef %9, ptr noundef %14, i64 noundef %15)
          to label %17 unwind label %18

17:                                               ; preds = %4
  call void @_ZN13duckdb_snappy15ByteArraySourceD1Ev(ptr noundef nonnull align 8 dereferenceable(24) %9) #17
  call void @llvm.lifetime.end.p0(i64 24, ptr %9) #17
  ret i1 %16

18:                                               ; preds = %4
  %19 = landingpad { ptr, i32 }
          cleanup
  %20 = extractvalue { ptr, i32 } %19, 0
  store ptr %20, ptr %10, align 8
  %21 = extractvalue { ptr, i32 } %19, 1
  store i32 %21, ptr %11, align 4
  call void @_ZN13duckdb_snappy15ByteArraySourceD1Ev(ptr noundef nonnull align 8 dereferenceable(24) %9) #17
  call void @llvm.lifetime.end.p0(i64 24, ptr %9) #17
  br label %22

22:                                               ; preds = %18
  %23 = load ptr, ptr %10, align 8
  %24 = load i32, ptr %11, align 4
  %25 = insertvalue { ptr, i32 } poison, ptr %23, 0
  %26 = insertvalue { ptr, i32 } %25, i32 %24, 1
  resume { ptr, i32 } %26
}