; Function Attrs: mustprogress uwtable
define noundef zeroext i1 @_ZN13duckdb_snappy20RawUncompressToIOVecEPKcmPK5iovecm(ptr noundef %0, i64 noundef %1, ptr noundef %2, i64 noundef %3) local_unnamed_addr #3 personality ptr @__gxx_personality_v0 {
  %5 = alloca %"class.duckdb_snappy::ByteArraySource", align 8
  call void @llvm.lifetime.start.p0(i64 24, ptr nonnull %5) #27
  store ptr getelementptr inbounds nuw inrange(-16, 40) (i8, ptr @_ZTVN13duckdb_snappy15ByteArraySourceE, i64 16), ptr %5, align 8, !tbaa !49
  %6 = getelementptr inbounds nuw i8, ptr %5, i64 8
  store ptr %0, ptr %6, align 8, !tbaa !55
  %7 = getelementptr inbounds nuw i8, ptr %5, i64 16
  store i64 %1, ptr %7, align 8, !tbaa !58
  %8 = invoke noundef zeroext i1 @_ZN13duckdb_snappy20RawUncompressToIOVecEPNS_6SourceEPK5iovecm(ptr noundef nonnull %5, ptr noundef %2, i64 noundef %3)
          to label %9 unwind label %10

9:                                                ; preds = %4
  call void @_ZN13duckdb_snappy15ByteArraySourceD1Ev(ptr noundef nonnull align 8 dereferenceable(24) %5) #27
  call void @llvm.lifetime.end.p0(i64 24, ptr nonnull %5) #27
  ret i1 %8

10:                                               ; preds = %4
  %11 = landingpad { ptr, i32 }
          cleanup
  call void @_ZN13duckdb_snappy15ByteArraySourceD1Ev(ptr noundef nonnull align 8 dereferenceable(24) %5) #27
  call void @llvm.lifetime.end.p0(i64 24, ptr nonnull %5) #27
  resume { ptr, i32 } %11
}